target datalayout = "e-m:e-p270:32:32-p271:32:32-p272:64:64-i64:64-i128:128-f80:128-n8:16:32:64-S128"
target triple = "x86_64-unknown-linux-gnu"

%struct.DisasContextBase = type { ptr, i64, i64, i32, i32, i32, i8, i8, i8, [2 x ptr] }
%struct.TranslationBlock = type { i64, i64, i32, i32, i16, i16, %struct.tb_tc, %struct.IntervalTreeNode, %struct.QemuSpin, [2 x i16], [2 x i16], [2 x i64], i64, [2 x i64], [2 x i64] }
%struct.tb_tc = type { ptr, i64 }
%struct.IntervalTreeNode = type { %struct.RBNode, i64, i64, i64 }
%struct.RBNode = type { i64, ptr, ptr }
%struct.QemuSpin = type { i32 }
%struct.TCGContext = type { ptr, ptr, ptr, ptr, ptr, i32, i32, i32, i32, i32, i32, i32, i8, i8, i8, i32, i32, i64, i64, i64, ptr, ptr, ptr, ptr, ptr, i64, ptr, ptr, ptr, ptr, %struct.anon, ptr, ptr, ptr, ptr, [6 x ptr], [6 x %struct.TCGTempSet], [512 x %struct.TCGTemp], %union.anon, %union.anon, %struct.anon.0, [32 x ptr], [512 x i16], ptr, [1 x %struct.__jmp_buf_tag] }
%struct.anon = type { ptr, ptr }
%struct.TCGTempSet = type { [8 x i64] }
%struct.TCGTemp = type { i48, i64, ptr, i64, ptr, i64, ptr }
%union.anon = type { %struct.QTailQLink }
%struct.QTailQLink = type { ptr, ptr }
%struct.anon.0 = type { ptr, ptr }
%struct.__jmp_buf_tag = type { [8 x i64], i32, %struct.__sigset_t }
%struct.__sigset_t = type { [16 x i64] }
%struct.qemu_plugin_insn = type { ptr, i64, ptr, [2 x [2 x ptr]], i8, i8, i8 }
%struct._GByteArray = type { ptr, i32 }

@tcg_ctx = external thread_local global ptr, align 8
@.str.3 = private unnamed_addr constant [31 x i8] c"../qemu/accel/tcg/translator.c\00", align 1
@__func__.plugin_insn_append = private unnamed_addr constant [19 x i8] c"plugin_insn_append\00", align 1

; Function Attrs: nounwind sspstrong uwtable
define internal void @tb_lock_page1(i64 noundef %p0, i64 noundef %p1) #0 {
entry:
  %p0.addr = alloca i64, align 8
  %p1.addr = alloca i64, align 8
  store i64 %p0, ptr %p0.addr, align 8
  store i64 %p1, ptr %p1.addr, align 8
  %0 = load i64, ptr %p1.addr, align 8
  call void @page_protect(i64 noundef %0)
  ret void
}

; Function Attrs: nounwind sspstrong uwtable
define internal void @tb_set_page_addr1(ptr noundef %tb, i64 noundef %addr) #0 {
entry:
  %tb.addr = alloca ptr, align 8
  %addr.addr = alloca i64, align 8
  store ptr %tb, ptr %tb.addr, align 8
  store i64 %addr, ptr %addr.addr, align 8
  %0 = load i64, ptr %addr.addr, align 8
  %1 = load ptr, ptr %tb.addr, align 8
  %itree = getelementptr inbounds %struct.TranslationBlock, ptr %1, i32 0, i32 7
  %last = getelementptr inbounds %struct.IntervalTreeNode, ptr %itree, i32 0, i32 2
  store i64 %0, ptr %last, align 8
  ret void
}

; Function Attrs: nounwind sspstrong uwtable
define internal void @tb_unlock_page1(i64 noundef %p0, i64 noundef %p1) #0 {
entry:
  %p0.addr = alloca i64, align 8
  %p1.addr = alloca i64, align 8
  store i64 %p0, ptr %p0.addr, align 8
  store i64 %p1, ptr %p1.addr, align 8
  ret void
}

; Function Attrs: nounwind sspstrong uwtable
define internal i64 @tb_page_addr1(ptr noundef %tb) #0 {
entry:
  %tb.addr = alloca ptr, align 8
  %next = alloca i64, align 8
  store ptr %tb, ptr %tb.addr, align 8
  %0 = load ptr, ptr %tb.addr, align 8
  %itree = getelementptr inbounds %struct.TranslationBlock, ptr %0, i32 0, i32 7
  %last = getelementptr inbounds %struct.IntervalTreeNode, ptr %itree, i32 0, i32 2
  %1 = load i64, ptr %last, align 8
  %and = and i64 %1, -4096
  store i64 %and, ptr %next, align 8
  %2 = load i64, ptr %next, align 8
  %3 = load ptr, ptr %tb.addr, align 8
  %itree1 = getelementptr inbounds %struct.TranslationBlock, ptr %3, i32 0, i32 7
  %start = getelementptr inbounds %struct.IntervalTreeNode, ptr %itree1, i32 0, i32 1
  %4 = load i64, ptr %start, align 8
  %and2 = and i64 %4, -4096
  %cmp = icmp eq i64 %2, %and2
  br i1 %cmp, label %cond.true, label %cond.false

cond.true:                                        ; preds = %entry
  br label %cond.end

cond.false:                                       ; preds = %entry
  %5 = load i64, ptr %next, align 8
  br label %cond.end

cond.end:                                         ; preds = %cond.false, %cond.true
  %cond = phi i64 [ -1, %cond.true ], [ %5, %cond.false ]
  ret i64 %cond
}

; Function Attrs: nounwind sspstrong uwtable
define internal void @tb_set_page_addr0(ptr noundef %tb, i64 noundef %addr) #0 {
entry:
  %tb.addr = alloca ptr, align 8
  %addr.addr = alloca i64, align 8
  store ptr %tb, ptr %tb.addr, align 8
  store i64 %addr, ptr %addr.addr, align 8
  %0 = load i64, ptr %addr.addr, align 8
  %1 = load ptr, ptr %tb.addr, align 8
  %itree = getelementptr inbounds %struct.TranslationBlock, ptr %1, i32 0, i32 7
  %start = getelementptr inbounds %struct.IntervalTreeNode, ptr %itree, i32 0, i32 1
  store i64 %0, ptr %start, align 8
  %2 = load i64, ptr %addr.addr, align 8
  %3 = load ptr, ptr %tb.addr, align 8
  %itree1 = getelementptr inbounds %struct.TranslationBlock, ptr %3, i32 0, i32 7
  %last = getelementptr inbounds %struct.IntervalTreeNode, ptr %itree1, i32 0, i32 2
  store i64 %2, ptr %last, align 8
  ret void
}

; Function Attrs: nounwind sspstrong uwtable
define internal void @tb_unlock_pages(ptr noundef %tb) #0 {
entry:
  %tb.addr = alloca ptr, align 8
  store ptr %tb, ptr %tb.addr, align 8
  ret void
}

; Function Attrs: nounwind sspstrong uwtable
define internal zeroext i1 @is_same_page(ptr noundef %db, i64 noundef %addr) #0 {
entry:
  %db.addr = alloca ptr, align 8
  %addr.addr = alloca i64, align 8
  store ptr %db, ptr %db.addr, align 8
  store i64 %addr, ptr %addr.addr, align 8
  %0 = load i64, ptr %addr.addr, align 8
  %1 = load ptr, ptr %db.addr, align 8
  %pc_first = getelementptr inbounds %struct.DisasContextBase, ptr %1, i32 0, i32 1
  %2 = load i64, ptr %pc_first, align 8
  %xor = xor i64 %0, %2
  %and = and i64 %xor, -4096
  %cmp = icmp eq i64 %and, 0
  ret i1 %cmp
}

; Function Attrs: nounwind sspstrong uwtable
define internal i64 @tb_page_addr0(ptr noundef %tb) #0 {
entry:
  %tb.addr = alloca ptr, align 8
  store ptr %tb, ptr %tb.addr, align 8
  %0 = load ptr, ptr %tb.addr, align 8
  %itree = getelementptr inbounds %struct.TranslationBlock, ptr %0, i32 0, i32 7
  %start = getelementptr inbounds %struct.IntervalTreeNode, ptr %itree, i32 0, i32 1
  %1 = load i64, ptr %start, align 8
  ret i64 %1
}

; Function Attrs: nounwind sspstrong uwtable
define internal i32 @ldub_p(ptr noundef %ptr) #0 {
entry:
  %ptr.addr = alloca ptr, align 8
  store ptr %ptr, ptr %ptr.addr, align 8
  %0 = load ptr, ptr %ptr.addr, align 8
  %1 = load i8, ptr %0, align 1
  %conv = zext i8 %1 to i32
  ret i32 %conv
}

; Function Attrs: nounwind sspstrong uwtable
define internal void @plugin_insn_append(i64 noundef %pc, ptr noundef %from, i64 noundef %size) #0 {
entry:
  %pc.addr = alloca i64, align 8
  %from.addr = alloca ptr, align 8
  %size.addr = alloca i64, align 8
  %insn = alloca ptr, align 8
  %off = alloca i64, align 8
  store i64 %pc, ptr %pc.addr, align 8
  store ptr %from, ptr %from.addr, align 8
  store i64 %size, ptr %size.addr, align 8
  %0 = call align 8 ptr @llvm.threadlocal.address.p0(ptr align 8 @tcg_ctx)
  %1 = load ptr, ptr %0, align 8
  %plugin_insn = getelementptr inbounds %struct.TCGContext, ptr %1, i32 0, i32 34
  %2 = load ptr, ptr %plugin_insn, align 8
  store ptr %2, ptr %insn, align 8
  %3 = load ptr, ptr %insn, align 8
  %cmp = icmp eq ptr %3, null
  br i1 %cmp, label %if.then, label %if.end

if.then:                                          ; preds = %entry
  br label %return

if.end:                                           ; preds = %entry
  %4 = load i64, ptr %pc.addr, align 8
  %5 = load ptr, ptr %insn, align 8
  %vaddr = getelementptr inbounds %struct.qemu_plugin_insn, ptr %5, i32 0, i32 1
  %6 = load i64, ptr %vaddr, align 8
  %sub = sub i64 %4, %6
  store i64 %sub, ptr %off, align 8
  %7 = load i64, ptr %off, align 8
  %8 = load ptr, ptr %insn, align 8
  %data = getelementptr inbounds %struct.qemu_plugin_insn, ptr %8, i32 0, i32 0
  %9 = load ptr, ptr %data, align 8
  %len = getelementptr inbounds %struct._GByteArray, ptr %9, i32 0, i32 1
  %10 = load i32, ptr %len, align 8
  %conv = zext i32 %10 to i64
  %cmp1 = icmp ult i64 %7, %conv
  br i1 %cmp1, label %if.then3, label %if.else

if.then3:                                         ; preds = %if.end
  %11 = load ptr, ptr %insn, align 8
  %data4 = getelementptr inbounds %struct.qemu_plugin_insn, ptr %11, i32 0, i32 0
  %12 = load ptr, ptr %data4, align 8
  %13 = load i64, ptr %off, align 8
  %conv5 = trunc i64 %13 to i32
  %call = call ptr @g_byte_array_set_size(ptr noundef %12, i32 noundef %conv5)
  br label %if.end13

if.else:                                          ; preds = %if.end
  %14 = load i64, ptr %off, align 8
  %15 = load ptr, ptr %insn, align 8
  %data6 = getelementptr inbounds %struct.qemu_plugin_insn, ptr %15, i32 0, i32 0
  %16 = load ptr, ptr %data6, align 8
  %len7 = getelementptr inbounds %struct._GByteArray, ptr %16, i32 0, i32 1
  %17 = load i32, ptr %len7, align 8
  %conv8 = zext i32 %17 to i64
  %cmp9 = icmp ugt i64 %14, %conv8
  br i1 %cmp9, label %if.then11, label %if.end12

if.then11:                                        ; preds = %if.else
  br label %do.body

do.body:                                          ; preds = %if.then11
  call void @g_assertion_message_expr(ptr noundef null, ptr noundef @.str.3, i32 noundef 307, ptr noundef @__func__.plugin_insn_append, ptr noundef null) #5
  unreachable

do.end:                                           ; No predecessors!
  br label %if.end12

if.end12:                                         ; preds = %do.end, %if.else
  br label %if.end13

if.end13:                                         ; preds = %if.end12, %if.then3
  %18 = load ptr, ptr %insn, align 8
  %data14 = getelementptr inbounds %struct.qemu_plugin_insn, ptr %18, i32 0, i32 0
  %19 = load ptr, ptr %data14, align 8
  %20 = load ptr, ptr %from.addr, align 8
  %21 = load i64, ptr %size.addr, align 8
  %conv15 = trunc i64 %21 to i32
  %call16 = call ptr @g_byte_array_append(ptr noundef %19, ptr noundef %20, i32 noundef %conv15)
  %22 = load ptr, ptr %insn, align 8
  %data17 = getelementptr inbounds %struct.qemu_plugin_insn, ptr %22, i32 0, i32 0
  store ptr %call16, ptr %data17, align 8
  br label %return

return:                                           ; preds = %if.end13, %if.then
  ret void
}

; Function Attrs: nounwind sspstrong uwtable
define internal ptr @translator_access(ptr noundef %env, ptr noundef %db, i64 noundef %pc, i64 noundef %len) #0 {
entry:
  %retval = alloca ptr, align 8
  %env.addr = alloca ptr, align 8
  %db.addr = alloca ptr, align 8
  %pc.addr = alloca i64, align 8
  %len.addr = alloca i64, align 8
  %host = alloca ptr, align 8
  %base = alloca i64, align 8
  %end = alloca i64, align 8
  %tb = alloca ptr, align 8
  %page0 = alloca i64, align 8
  %old_page1 = alloca i64, align 8
  %new_page1 = alloca i64, align 8
  store ptr %env, ptr %env.addr, align 8
  store ptr %db, ptr %db.addr, align 8
  store i64 %pc, ptr %pc.addr, align 8
  store i64 %len, ptr %len.addr, align 8
  %0 = load ptr, ptr %db.addr, align 8
  %tb1 = getelementptr inbounds %struct.DisasContextBase, ptr %0, i32 0, i32 0
  %1 = load ptr, ptr %tb1, align 8
  store ptr %1, ptr %tb, align 8
  %2 = load ptr, ptr %tb, align 8
  %call = call i64 @tb_page_addr0(ptr noundef %2)
  %cmp = icmp eq i64 %call, -1
  %lnot = xor i1 %cmp, true
  %lnot2 = xor i1 %lnot, true
  %lnot.ext = zext i1 %lnot2 to i32
  %conv = sext i32 %lnot.ext to i64
  %tobool = icmp ne i64 %conv, 0
  br i1 %tobool, label %if.then, label %if.end

if.then:                                          ; preds = %entry
  store ptr null, ptr %retval, align 8
  br label %return

if.end:                                           ; preds = %entry
  %3 = load i64, ptr %pc.addr, align 8
  %4 = load i64, ptr %len.addr, align 8
  %add = add i64 %3, %4
  %sub = sub i64 %add, 1
  store i64 %sub, ptr %end, align 8
  %5 = load ptr, ptr %db.addr, align 8
  %6 = load i64, ptr %end, align 8
  %call3 = call zeroext i1 @is_same_page(ptr noundef %5, i64 noundef %6)
  %lnot4 = xor i1 %call3, true
  %lnot6 = xor i1 %lnot4, true
  %lnot.ext7 = zext i1 %lnot6 to i32
  %conv8 = sext i32 %lnot.ext7 to i64
  %tobool9 = icmp ne i64 %conv8, 0
  br i1 %tobool9, label %if.then10, label %if.else

if.then10:                                        ; preds = %if.end
  %7 = load ptr, ptr %db.addr, align 8
  %host_addr = getelementptr inbounds %struct.DisasContextBase, ptr %7, i32 0, i32 9
  %arrayidx = getelementptr [2 x ptr], ptr %host_addr, i64 0, i64 0
  %8 = load ptr, ptr %arrayidx, align 8
  store ptr %8, ptr %host, align 8
  %9 = load ptr, ptr %db.addr, align 8
  %pc_first = getelementptr inbounds %struct.DisasContextBase, ptr %9, i32 0, i32 1
  %10 = load i64, ptr %pc_first, align 8
  store i64 %10, ptr %base, align 8
  br label %if.end60

if.else:                                          ; preds = %if.end
  %11 = load ptr, ptr %db.addr, align 8
  %host_addr11 = getelementptr inbounds %struct.DisasContextBase, ptr %11, i32 0, i32 9
  %arrayidx12 = getelementptr [2 x ptr], ptr %host_addr11, i64 0, i64 1
  %12 = load ptr, ptr %arrayidx12, align 8
  store ptr %12, ptr %host, align 8
  %13 = load ptr, ptr %db.addr, align 8
  %pc_first13 = getelementptr inbounds %struct.DisasContextBase, ptr %13, i32 0, i32 1
  %14 = load i64, ptr %pc_first13, align 8
  %add14 = add i64 %14, 4096
  %sub15 = sub i64 %add14, 1
  %and = and i64 %sub15, -4096
  store i64 %and, ptr %base, align 8
  %15 = load ptr, ptr %host, align 8
  %cmp16 = icmp eq ptr %15, null
  br i1 %cmp16, label %if.then18, label %if.end56

if.then18:                                        ; preds = %if.else
  %16 = load ptr, ptr %env.addr, align 8
  %17 = load i64, ptr %base, align 8
  %18 = load ptr, ptr %db.addr, align 8
  %host_addr19 = getelementptr inbounds %struct.DisasContextBase, ptr %18, i32 0, i32 9
  %arrayidx20 = getelementptr [2 x ptr], ptr %host_addr19, i64 0, i64 1
  %call21 = call i64 @get_page_addr_code_hostp(ptr noundef %16, i64 noundef %17, ptr noundef %arrayidx20)
  store i64 %call21, ptr %new_page1, align 8
  %19 = load i64, ptr %new_page1, align 8
  %cmp22 = icmp eq i64 %19, -1
  %lnot24 = xor i1 %cmp22, true
  %lnot26 = xor i1 %lnot24, true
  %lnot.ext27 = zext i1 %lnot26 to i32
  %conv28 = sext i32 %lnot.ext27 to i64
  %tobool29 = icmp ne i64 %conv28, 0
  br i1 %tobool29, label %if.then30, label %if.end31

if.then30:                                        ; preds = %if.then18
  %20 = load ptr, ptr %tb, align 8
  call void @tb_unlock_pages(ptr noundef %20)
  %21 = load ptr, ptr %tb, align 8
  call void @tb_set_page_addr0(ptr noundef %21, i64 noundef -1)
  store ptr null, ptr %retval, align 8
  br label %return

if.end31:                                         ; preds = %if.then18
  %22 = load ptr, ptr %tb, align 8
  %call32 = call i64 @tb_page_addr1(ptr noundef %22)
  store i64 %call32, ptr %old_page1, align 8
  %23 = load i64, ptr %new_page1, align 8
  %24 = load i64, ptr %old_page1, align 8
  %cmp33 = icmp ne i64 %23, %24
  %lnot35 = xor i1 %cmp33, true
  %lnot37 = xor i1 %lnot35, true
  %lnot.ext38 = zext i1 %lnot37 to i32
  %conv39 = sext i32 %lnot.ext38 to i64
  %tobool40 = icmp ne i64 %conv39, 0
  br i1 %tobool40, label %if.then41, label %if.end53

if.then41:                                        ; preds = %if.end31
  %25 = load ptr, ptr %tb, align 8
  %call42 = call i64 @tb_page_addr0(ptr noundef %25)
  store i64 %call42, ptr %page0, align 8
  %26 = load i64, ptr %old_page1, align 8
  %cmp43 = icmp ne i64 %26, -1
  %lnot45 = xor i1 %cmp43, true
  %lnot47 = xor i1 %lnot45, true
  %lnot.ext48 = zext i1 %lnot47 to i32
  %conv49 = sext i32 %lnot.ext48 to i64
  %tobool50 = icmp ne i64 %conv49, 0
  br i1 %tobool50, label %if.then51, label %if.end52

if.then51:                                        ; preds = %if.then41
  %27 = load i64, ptr %page0, align 8
  %28 = load i64, ptr %old_page1, align 8
  call void @tb_unlock_page1(i64 noundef %27, i64 noundef %28)
  br label %if.end52

if.end52:                                         ; preds = %if.then51, %if.then41
  %29 = load ptr, ptr %tb, align 8
  %30 = load i64, ptr %new_page1, align 8
  call void @tb_set_page_addr1(ptr noundef %29, i64 noundef %30)
  %31 = load i64, ptr %page0, align 8
  %32 = load i64, ptr %new_page1, align 8
  call void @tb_lock_page1(i64 noundef %31, i64 noundef %32)
  br label %if.end53

if.end53:                                         ; preds = %if.end52, %if.end31
  %33 = load ptr, ptr %db.addr, align 8
  %host_addr54 = getelementptr inbounds %struct.DisasContextBase, ptr %33, i32 0, i32 9
  %arrayidx55 = getelementptr [2 x ptr], ptr %host_addr54, i64 0, i64 1
  %34 = load ptr, ptr %arrayidx55, align 8
  store ptr %34, ptr %host, align 8
  br label %if.end56

if.end56:                                         ; preds = %if.end53, %if.else
  %35 = load ptr, ptr %db.addr, align 8
  %36 = load i64, ptr %pc.addr, align 8
  %call57 = call zeroext i1 @is_same_page(ptr noundef %35, i64 noundef %36)
  br i1 %call57, label %if.then58, label %if.end59

if.then58:                                        ; preds = %if.end56
  store ptr null, ptr %retval, align 8
  br label %return

if.end59:                                         ; preds = %if.end56
  br label %if.end60

if.end60:                                         ; preds = %if.end59, %if.then10
  br label %do.body

do.body:                                          ; preds = %if.end60
  %37 = load i64, ptr %pc.addr, align 8
  %38 = load i64, ptr %base, align 8
  %cmp61 = icmp uge i64 %37, %38
  br i1 %cmp61, label %if.end64, label %if.then63

if.then63:                                        ; preds = %do.body
  unreachable

if.end64:                                         ; preds = %do.body
  br label %do.end

do.end:                                           ; preds = %if.end64
  %39 = load ptr, ptr %host, align 8
  %40 = load i64, ptr %pc.addr, align 8
  %41 = load i64, ptr %base, align 8
  %sub65 = sub i64 %40, %41
  %add.ptr = getelementptr i8, ptr %39, i64 %sub65
  store ptr %add.ptr, ptr %retval, align 8
  br label %return

return:                                           ; preds = %do.end, %if.then58, %if.then30, %if.then
  %42 = load ptr, ptr %retval, align 8
  ret ptr %42
}

; Function Attrs: nounwind sspstrong uwtable
define dso_local zeroext i8 @translator_ldub(ptr noundef %env, ptr noundef %db, i64 noundef %pc) #0 {
entry:
  %retval = alloca i8, align 1
  %env.addr = alloca ptr, align 8
  %db.addr = alloca ptr, align 8
  %pc.addr = alloca i64, align 8
  %ret = alloca i8, align 1
  %p = alloca ptr, align 8
  store ptr %env, ptr %env.addr, align 8
  store ptr %db, ptr %db.addr, align 8
  store i64 %pc, ptr %pc.addr, align 8
  %0 = load ptr, ptr %env.addr, align 8
  %1 = load ptr, ptr %db.addr, align 8
  %2 = load i64, ptr %pc.addr, align 8
  %call = call ptr @translator_access(ptr noundef %0, ptr noundef %1, i64 noundef %2, i64 noundef 1)
  store ptr %call, ptr %p, align 8
  %3 = load ptr, ptr %p, align 8
  %tobool = icmp ne ptr %3, null
  br i1 %tobool, label %if.then, label %if.end

if.then:                                          ; preds = %entry
  %4 = load i64, ptr %pc.addr, align 8
  %5 = load ptr, ptr %p, align 8
  call void @plugin_insn_append(i64 noundef %4, ptr noundef %5, i64 noundef 1)
  %6 = load ptr, ptr %p, align 8
  %call1 = call i32 @ldub_p(ptr noundef %6)
  %conv = trunc i32 %call1 to i8
  store i8 %conv, ptr %retval, align 1
  br label %return

if.end:                                           ; preds = %entry
  %7 = load ptr, ptr %env.addr, align 8
  %8 = load i64, ptr %pc.addr, align 8
  %call2 = call i32 @cpu_ldub_code(ptr noundef %7, i64 noundef %8)
  %conv3 = trunc i32 %call2 to i8
  store i8 %conv3, ptr %ret, align 1
  %9 = load i64, ptr %pc.addr, align 8
  call void @plugin_insn_append(i64 noundef %9, ptr noundef %ret, i64 noundef 1)
  %10 = load i8, ptr %ret, align 1
  store i8 %10, ptr %retval, align 1
  br label %return

return:                                           ; preds = %if.end, %if.then
  %11 = load i8, ptr %retval, align 1
  ret i8 %11
}