; Function Attrs: nounwind sspstrong uwtable
define dso_local zeroext i8 @translator_ldub(ptr noundef %env, ptr noundef %db, i64 noundef %pc) local_unnamed_addr #0 {
entry:
  %ret = alloca i8, align 1
  %0 = load ptr, ptr %db, align 8
  %1 = getelementptr i8, ptr %0, i64 72
  %.val.i = load i64, ptr %1, align 8
  %cmp.i = icmp eq i64 %.val.i, -1
  br i1 %cmp.i, label %if.end, label %if.end.i

if.end.i:                                         ; preds = %entry
  %2 = getelementptr i8, ptr %db, i64 8
  %db.val.i = load i64, ptr %2, align 8
  %xor.i.i = xor i64 %db.val.i, %pc
  %cmp.i.i = icmp ult i64 %xor.i.i, 4096
  br i1 %cmp.i.i, label %if.then10.i, label %if.else.i

if.then10.i:                                      ; preds = %if.end.i
  %host_addr.i = getelementptr inbounds nuw i8, ptr %db, i64 40
  %3 = load ptr, ptr %host_addr.i, align 8
  br label %translator_access.exit

if.else.i:                                        ; preds = %if.end.i
  %arrayidx12.i = getelementptr i8, ptr %db, i64 48
  %4 = load ptr, ptr %arrayidx12.i, align 8
  %sub15.i = add i64 %db.val.i, 4095
  %and.i = and i64 %sub15.i, -4096
  %cmp16.i = icmp eq ptr %4, null
  br i1 %cmp16.i, label %if.then18.i, label %translator_access.exit

if.then18.i:                                      ; preds = %if.else.i
  %call21.i = tail call i64 @get_page_addr_code_hostp(ptr noundef %env, i64 noundef %and.i, ptr noundef nonnull %arrayidx12.i) #8
  %cmp22.i = icmp eq i64 %call21.i, -1
  br i1 %cmp22.i, label %if.then30.i, label %if.end31.i

if.then30.i:                                      ; preds = %if.then18.i
  tail call void @llvm.memset.p0.i64(ptr noundef nonnull align 8 dereferenceable(16) %1, i8 -1, i64 16, i1 false)
  br label %if.end

if.end31.i:                                       ; preds = %if.then18.i
  %.val28.i = load i64, ptr %1, align 8
  %5 = getelementptr i8, ptr %0, i64 80
  %.val29.i = load i64, ptr %5, align 8
  %and.i.i = and i64 %.val29.i, -4096
  %and2.i.i = and i64 %.val28.i, -4096
  %cmp.i30.i = icmp eq i64 %and.i.i, %and2.i.i
  %cond.i.i = select i1 %cmp.i30.i, i64 -1, i64 %and.i.i
  %cmp33.not.i = icmp eq i64 %call21.i, %cond.i.i
  br i1 %cmp33.not.i, label %if.end56.i, label %if.end52.i

if.end52.i:                                       ; preds = %if.end31.i
  store i64 %call21.i, ptr %5, align 8
  tail call void @page_protect(i64 noundef range(i64 0, -1) %call21.i) #8
  br label %if.end56.i

if.end56.i:                                       ; preds = %if.end31.i, %if.end52.i
  %6 = load ptr, ptr %arrayidx12.i, align 8
  %db.val27.pre.i = load i64, ptr %2, align 8
  %.pre = xor i64 %db.val27.pre.i, %pc
  %7 = icmp ult i64 %.pre, 4096
  br i1 %7, label %if.end, label %translator_access.exit

translator_access.exit:                           ; preds = %if.else.i, %if.then10.i, %if.end56.i
  %base.0.i = phi i64 [ %db.val.i, %if.then10.i ], [ %and.i, %if.end56.i ], [ %and.i, %if.else.i ]
  %host.1.i = phi ptr [ %3, %if.then10.i ], [ %6, %if.end56.i ], [ %4, %if.else.i ]
  %cmp61.i = icmp uge i64 %pc, %base.0.i
  tail call void @llvm.assume(i1 %cmp61.i)
  %sub65.i = sub i64 %pc, %base.0.i
  %add.ptr.i = getelementptr i8, ptr %host.1.i, i64 %sub65.i
  %tobool.not = icmp eq ptr %add.ptr.i, null
  br i1 %tobool.not, label %if.end, label %if.then

if.then:                                          ; preds = %translator_access.exit
  %8 = tail call align 8 ptr @llvm.threadlocal.address.p0(ptr align 8 @tcg_ctx)
  %9 = load ptr, ptr %8, align 8
  %plugin_insn.i = getelementptr inbounds nuw i8, ptr %9, i64 224
  %10 = load ptr, ptr %plugin_insn.i, align 8
  %cmp.i7 = icmp eq ptr %10, null
  br i1 %cmp.i7, label %return, label %if.end.i8

if.end.i8:                                        ; preds = %if.then
  %vaddr.i = getelementptr inbounds nuw i8, ptr %10, i64 8
  %11 = load i64, ptr %vaddr.i, align 8
  %sub.i = sub i64 %pc, %11
  %12 = load ptr, ptr %10, align 8
  %len.i = getelementptr inbounds nuw i8, ptr %12, i64 8
  %13 = load i32, ptr %len.i, align 8
  %conv.i = zext i32 %13 to i64
  %cmp1.i = icmp ult i64 %sub.i, %conv.i
  br i1 %cmp1.i, label %if.then3.i, label %if.else.i9

if.then3.i:                                       ; preds = %if.end.i8
  %conv5.i = trunc nuw i64 %sub.i to i32
  %call.i = tail call ptr @g_byte_array_set_size(ptr noundef nonnull %12, i32 noundef %conv5.i) #8
  %.pre.i = load ptr, ptr %10, align 8
  br label %if.end13.i

if.else.i9:                                       ; preds = %if.end.i8
  %cmp9.i = icmp ugt i64 %sub.i, %conv.i
  br i1 %cmp9.i, label %do.body.i10, label %if.end13.i

do.body.i10:                                      ; preds = %if.else.i9
  tail call void @g_assertion_message_expr(ptr noundef null, ptr noundef nonnull @.str.3, i32 noundef 307, ptr noundef nonnull @__func__.plugin_insn_append, ptr noundef null) #9
  unreachable

if.end13.i:                                       ; preds = %if.else.i9, %if.then3.i
  %14 = phi ptr [ %12, %if.else.i9 ], [ %.pre.i, %if.then3.i ]
  %call16.i = tail call ptr @g_byte_array_append(ptr noundef %14, ptr noundef nonnull %add.ptr.i, i32 noundef 1) #8
  store ptr %call16.i, ptr %10, align 8
  br label %return

if.end:                                           ; preds = %if.end56.i, %entry, %if.then30.i, %translator_access.exit
  %call2 = tail call i32 @cpu_ldub_code(ptr noundef %env, i64 noundef %pc) #8
  %conv3 = trunc i32 %call2 to i8
  store i8 %conv3, ptr %ret, align 1
  %15 = tail call align 8 ptr @llvm.threadlocal.address.p0(ptr align 8 @tcg_ctx)
  %16 = load ptr, ptr %15, align 8
  %plugin_insn.i12 = getelementptr inbounds nuw i8, ptr %16, i64 224
  %17 = load ptr, ptr %plugin_insn.i12, align 8
  %cmp.i13 = icmp eq ptr %17, null
  br i1 %cmp.i13, label %return, label %if.end.i14

if.end.i14:                                       ; preds = %if.end
  %vaddr.i15 = getelementptr inbounds nuw i8, ptr %17, i64 8
  %18 = load i64, ptr %vaddr.i15, align 8
  %sub.i16 = sub i64 %pc, %18
  %19 = load ptr, ptr %17, align 8
  %len.i17 = getelementptr inbounds nuw i8, ptr %19, i64 8
  %20 = load i32, ptr %len.i17, align 8
  %conv.i18 = zext i32 %20 to i64
  %cmp1.i19 = icmp ult i64 %sub.i16, %conv.i18
  br i1 %cmp1.i19, label %if.then3.i25, label %if.else.i20

if.then3.i25:                                     ; preds = %if.end.i14
  %conv5.i26 = trunc nuw i64 %sub.i16 to i32
  %call.i27 = tail call ptr @g_byte_array_set_size(ptr noundef nonnull %19, i32 noundef %conv5.i26) #8
  %.pre.i28 = load ptr, ptr %17, align 8
  br label %if.end13.i22

if.else.i20:                                      ; preds = %if.end.i14
  %cmp9.i21 = icmp ugt i64 %sub.i16, %conv.i18
  br i1 %cmp9.i21, label %do.body.i24, label %if.end13.i22

do.body.i24:                                      ; preds = %if.else.i20
  tail call void @g_assertion_message_expr(ptr noundef null, ptr noundef nonnull @.str.3, i32 noundef 307, ptr noundef nonnull @__func__.plugin_insn_append, ptr noundef null) #9
  unreachable

if.end13.i22:                                     ; preds = %if.else.i20, %if.then3.i25
  %21 = phi ptr [ %19, %if.else.i20 ], [ %.pre.i28, %if.then3.i25 ]
  %call16.i23 = call ptr @g_byte_array_append(ptr noundef %21, ptr noundef nonnull %ret, i32 noundef 1) #8
  store ptr %call16.i23, ptr %17, align 8
  br label %return

return:                                           ; preds = %if.end13.i22, %if.end, %if.end13.i, %if.then
  %retval.0.in = phi ptr [ %add.ptr.i, %if.then ], [ %add.ptr.i, %if.end13.i ], [ %ret, %if.end ], [ %ret, %if.end13.i22 ]
  %retval.0 = load i8, ptr %retval.0.in, align 1
  ret i8 %retval.0
}